; Function Attrs: mustprogress nofree norecurse nosync nounwind willreturn memory(read, argmem: readwrite, inaccessiblemem: none) uwtable
define internal void @ff_tx_fft3_float_c(ptr readnone captures(none) %0, ptr noundef writeonly captures(none) initializes((0, 8)) %1, ptr noundef readonly captures(none) %2, i64 noundef %3) #9 {
  %5 = lshr i64 %3, 3
  %.sroa.0.0.copyload.i = load float, ptr %2, align 4, !tbaa !27
  %.sroa.6.0..sroa_idx.i = getelementptr inbounds nuw i8, ptr %2, i64 4
  %.sroa.6.0.copyload.i = load float, ptr %.sroa.6.0..sroa_idx.i, align 4, !tbaa !27
  %6 = getelementptr inbounds nuw i8, ptr %2, i64 8
  %7 = getelementptr inbounds nuw i8, ptr %2, i64 12
  %8 = load float, ptr %7, align 4, !tbaa !51
  %9 = getelementptr inbounds nuw i8, ptr %2, i64 16
  %10 = getelementptr inbounds nuw i8, ptr %2, i64 20
  %11 = load float, ptr %10, align 4, !tbaa !51
  %12 = fsub nsz float %8, %11
  %13 = fadd nsz float %8, %11
  %14 = load float, ptr %6, align 4, !tbaa !49
  %15 = load float, ptr %9, align 4, !tbaa !49
  %16 = fsub nsz float %14, %15
  %17 = fadd nsz float %14, %15
  %18 = fadd nsz float %.sroa.0.0.copyload.i, %17
  store float %18, ptr %1, align 4, !tbaa !49
  %19 = fadd nsz float %.sroa.6.0.copyload.i, %13
  %20 = getelementptr inbounds nuw i8, ptr %1, i64 4
  store float %19, ptr %20, align 4, !tbaa !51
  %21 = load float, ptr getelementptr inbounds nuw (i8, ptr @ff_tx_tab_53_float, i64 32), align 16, !tbaa !27
  %22 = fmul nsz float %12, %21
  %23 = load float, ptr getelementptr inbounds nuw (i8, ptr @ff_tx_tab_53_float, i64 36), align 4, !tbaa !27
  %24 = fmul nsz float %16, %23
  %25 = load float, ptr getelementptr inbounds nuw (i8, ptr @ff_tx_tab_53_float, i64 40), align 8, !tbaa !27
  %26 = fmul nsz float %17, %25
  %27 = fmul nsz float %13, %25
  %28 = fsub nsz float %.sroa.0.0.copyload.i, %26
  %29 = fadd nsz float %22, %28
  %30 = getelementptr inbounds nuw %struct.AVComplexFloat, ptr %1, i64 %5
  store float %29, ptr %30, align 4, !tbaa !49
  %31 = fsub nsz float %.sroa.6.0.copyload.i, %27
  %32 = fsub nsz float %31, %24
  %33 = getelementptr inbounds nuw i8, ptr %30, i64 4
  store float %32, ptr %33, align 4, !tbaa !51
  %34 = fsub nsz float %28, %22
  %.idx.i = shl nsw i64 %5, 4
  %35 = getelementptr inbounds nuw i8, ptr %1, i64 %.idx.i
  store float %34, ptr %35, align 4, !tbaa !49
  %36 = fadd nsz float %24, %31
  %37 = getelementptr inbounds nuw i8, ptr %35, i64 4
  store float %36, ptr %37, align 4, !tbaa !51
  ret void
}